; Function Attrs: nounwind uwtable
define ptr @CORD_to_const_char_star(ptr noundef %0) local_unnamed_addr #0 {
  %2 = icmp eq ptr %0, null
  br i1 %2, label %7, label %3

3:                                                ; preds = %1
  %4 = load i8, ptr %0, align 1, !tbaa !8
  %.not = icmp eq i8 %4, 0
  br i1 %.not, label %5, label %7

5:                                                ; preds = %3
  %6 = tail call ptr @CORD_to_char_star(ptr noundef nonnull %0)
  br label %7

7:                                                ; preds = %3, %1, %5
  %.0 = phi ptr [ %6, %5 ], [ @.str.3, %1 ], [ %0, %3 ]
  ret ptr %.0
}